target datalayout = "e-m:e-p270:32:32-p271:32:32-p272:64:64-i64:64-i128:128-f80:128-n8:16:32:64-S128"
target triple = "x86_64-pc-linux-gnu"

@MINIMUM_MEMORY_SIZE_FAILURE = global i64 -1, align 8
@MAXIMUM_MEMORY_SIZE_FAILURE = global i64 -1, align 8

; Function Attrs: nounwind uwtable
define internal ptr @ctest_libMalloc(ptr noundef %0, i64 noundef %1) #0 {
  %3 = alloca ptr, align 8
  %4 = alloca ptr, align 8
  %5 = alloca i64, align 8
  store ptr %0, ptr %4, align 8, !tbaa !14
  store i64 %1, ptr %5, align 8, !tbaa !38
  %6 = load i64, ptr @MINIMUM_MEMORY_SIZE_FAILURE, align 8, !tbaa !38
  %7 = load i64, ptr %5, align 8, !tbaa !38
  %8 = icmp ule i64 %6, %7
  br i1 %8, label %9, label %14

9:                                                ; preds = %2
  %10 = load i64, ptr %5, align 8, !tbaa !38
  %11 = load i64, ptr @MAXIMUM_MEMORY_SIZE_FAILURE, align 8, !tbaa !38
  %12 = icmp ule i64 %10, %11
  br i1 %12, label %13, label %14

13:                                               ; preds = %9
  store ptr null, ptr %3, align 8
  br label %17

14:                                               ; preds = %9, %2
  %15 = load i64, ptr %5, align 8, !tbaa !38
  %16 = call noalias ptr @malloc(i64 noundef %15) #13
  store ptr %16, ptr %3, align 8
  br label %17

17:                                               ; preds = %14, %13
  %18 = load ptr, ptr %3, align 8
  ret ptr %18
}