; Function Attrs: mustprogress nofree nounwind willreturn memory(read, argmem: none, inaccessiblemem: readwrite) uwtable
define internal noalias noundef ptr @ctest_libMalloc(ptr readnone captures(none) %0, i64 noundef %1) #11 {
  %3 = load i64, ptr @MINIMUM_MEMORY_SIZE_FAILURE, align 8, !tbaa !27
  %.not = icmp ugt i64 %3, %1
  %4 = load i64, ptr @MAXIMUM_MEMORY_SIZE_FAILURE, align 8
  %.not4 = icmp ugt i64 %1, %4
  %or.cond = select i1 %.not, i1 true, i1 %.not4
  br i1 %or.cond, label %5, label %7

5:                                                ; preds = %2
  %6 = tail call noalias ptr @malloc(i64 noundef %1) #24
  br label %7

7:                                                ; preds = %2, %5
  %.0 = phi ptr [ %6, %5 ], [ null, %2 ]
  ret ptr %.0
}